	.file	"stack5.c"
	.text
	.section	.rodata
.LC0:
	.string	"Buffer address: %p\n"
.LC1:
	.string	"and will be returning to %p\n"
	.text
	.globl	start_level
	.type	start_level, @function
start_level:
.LFB6:
	.cfi_startproc
	endbr64
	pushq	%rbp
	.cfi_def_cfa_offset 16
	.cfi_offset 6, -16
	movq	%rsp, %rbp
	.cfi_def_cfa_register 6
	subq	$160, %rsp
	movq	%fs:40, %rax
	movq	%rax, -8(%rbp)
	xorl	%eax, %eax
	leaq	-144(%rbp), %rax
	movq	%rax, %rsi
	leaq	.LC0(%rip), %rax
	movq	%rax, %rdi
	movl	$0, %eax
	call	printf@PLT
	leaq	-144(%rbp), %rax
	movq	%rax, %rdi
	call	gets@PLT
	movq	8(%rbp), %rax
	movq	%rax, -152(%rbp)
	movq	-152(%rbp), %rax
	movq	%rax, %rsi
	leaq	.LC1(%rip), %rax
	movq	%rax, %rdi
	movl	$0, %eax
	call	printf@PLT
	nop
	movq	-8(%rbp), %rax
	subq	%fs:40, %rax
	je	.L2
	call	__stack_chk_fail@PLT
.L2:
	leave
	.cfi_def_cfa 7, 8
	ret
	.cfi_endproc
.LFE6:
	.size	start_level, .-start_level
	.section	.rodata
	.align 8
.LC2:
	.string	"Welcome to phoenix/stack-five, brought to you by https://exploit.education"
	.text
	.globl	main
	.type	main, @function
main:
.LFB7:
	.cfi_startproc
	endbr64
	pushq	%rbp
	.cfi_def_cfa_offset 16
	.cfi_offset 6, -16
	movq	%rsp, %rbp
	.cfi_def_cfa_register 6
	subq	$16, %rsp
	movl	%edi, -4(%rbp)
	movq	%rsi, -16(%rbp)
	leaq	.LC2(%rip), %rax
	movq	%rax, %rdi
	call	puts@PLT
	movl	$0, %eax
	call	start_level
	movl	$0, %eax
	leave
	.cfi_def_cfa 7, 8
	ret
	.cfi_endproc
.LFE7:
	.size	main, .-main
	.ident	"GCC: (Ubuntu 11.2.0-19ubuntu1) 11.2.0"
	.section	.note.GNU-stack,"",@progbits
	.section	.note.gnu.property,"a"
	.align 8
	.long	1f - 0f
	.long	4f - 1f
	.long	5
0:
	.string	"GNU"
1:
	.align 8
	.long	0xc0000002
	.long	3f - 2f
2:
	.long	0x3
3:
	.align 8
4:
